TN:
SF:/home/team06/zeira2/Middleware/inc/BackMotors.hpp
FN:21,_ZN11IBackMotorsC2Ev
FN:23,_ZN11IBackMotorsD0Ev
FN:23,_ZN11IBackMotorsD2Ev
FNDA:0,_ZN11IBackMotorsD0Ev
FNDA:17,_ZN11IBackMotorsD2Ev
FNDA:17,_ZN11IBackMotorsC2Ev
FNF:3
FNH:2
DA:21,17
DA:23,17
LF:2
LH:2
end_of_record
TN:
SF:/home/team06/zeira2/Middleware/inc/BatteryReader.hpp
FN:19,_ZN14IBatteryReaderC2Ev
FN:21,_ZN14IBatteryReaderD0Ev
FN:21,_ZN14IBatteryReaderD2Ev
FNDA:49,_ZN14IBatteryReaderD2Ev
FNDA:49,_ZN14IBatteryReaderC2Ev
FNDA:0,_ZN14IBatteryReaderD0Ev
FNF:3
FNH:2
DA:19,49
DA:21,49
LF:2
LH:2
end_of_record
TN:
SF:/home/team06/zeira2/Middleware/inc/FServo.hpp
FN:23,_ZN7IFServoC2Ev
FN:25,_ZN7IFServoD0Ev
FN:25,_ZN7IFServoD2Ev
FNDA:17,_ZN7IFServoD2Ev
FNDA:17,_ZN7IFServoC2Ev
FNDA:0,_ZN7IFServoD0Ev
FNF:3
FNH:2
DA:23,17
DA:25,17
LF:2
LH:2
end_of_record
TN:
SF:/home/team06/zeira2/Middleware/inc/IPublisher.hpp
FN:7,_ZN10IPublisherC2Ev
FN:9,_ZN10IPublisherD2Ev
FN:9,_ZN10IPublisherD0Ev
FN:16,_ZN12ZmqPublisherC2ERKNSt7__cxx1112basic_stringIcSt11char_traitsIcESaIcEEERN3zmq9context_tE
FN:21,_ZN12ZmqPublisherD2Ev
FN:21,_ZN12ZmqPublisherD0Ev
FN:23,_ZN12ZmqPublisher4sendERKNSt7__cxx1112basic_stringIcSt11char_traitsIcESaIcEEE
FNDA:6,_ZN12ZmqPublisher4sendERKNSt7__cxx1112basic_stringIcSt11char_traitsIcESaIcEEE
FNDA:2,_ZN12ZmqPublisherD2Ev
FNDA:2,_ZN10IPublisherD2Ev
FNDA:2,_ZN10IPublisherC2Ev
FNDA:0,_ZN10IPublisherD0Ev
FNDA:2,_ZN12ZmqPublisherC2ERKNSt7__cxx1112basic_stringIcSt11char_traitsIcESaIcEEERN3zmq9context_tE
FNDA:0,_ZN12ZmqPublisherD0Ev
FNF:7
FNH:5
DA:7,2
DA:9,2
DA:16,2
DA:17,2
DA:18,2
DA:19,2
DA:21,2
DA:23,6
DA:24,12
DA:25,6
DA:26,6
LF:11
LH:11
end_of_record
TN:
SF:/home/team06/zeira2/Middleware/inc/ISensor.hpp
FN:12,_ZN10SensorDataD2Ev
FN:20,_ZN10SensorDataC2ERKNSt7__cxx1112basic_stringIcSt11char_traitsIcESaIcEEEb
FN:26,_ZN7ISensorC2Ev
FN:28,_ZN7ISensorD2Ev
FN:28,_ZN7ISensorD0Ev
FNDA:172,_ZN10SensorDataD2Ev
FNDA:0,_ZN7ISensorD0Ev
FNDA:172,_ZN10SensorDataC2ERKNSt7__cxx1112basic_stringIcSt11char_traitsIcESaIcEEEb
FNDA:86,_ZN7ISensorC2Ev
FNDA:86,_ZN7ISensorD2Ev
FNF:5
FNH:4
DA:12,172
DA:20,172
DA:21,172
DA:23,172
DA:26,86
DA:28,86
LF:6
LH:6
end_of_record
TN:
SF:/home/team06/zeira2/Middleware/inc/MockCanReader.hpp
FN:11,_ZN10ICanReaderC2Ev
FN:13,_ZN10ICanReaderD0Ev
FN:13,_ZN10ICanReaderD2Ev
FNDA:45,_ZN10ICanReaderC2Ev
FNDA:0,_ZN10ICanReaderD0Ev
FNDA:45,_ZN10ICanReaderD2Ev
FNF:3
FNH:2
DA:11,45
DA:13,45
LF:2
LH:2
end_of_record
TN:
SF:/home/team06/zeira2/Middleware/src/BackMotors.cpp
FN:3,_ZN10BackMotorsC2Ev
FN:5,_ZN10BackMotors12open_i2c_busEv
FN:17,_ZN10BackMotorsD2Ev
FN:17,_ZN10BackMotorsD0Ev
FN:23,_ZN10BackMotors11init_motorsEv
FN:54,_ZN10BackMotors11setMotorPwmEii
FN:70,_ZN10BackMotors8setSpeedEi
FN:100,_ZN10BackMotors13writeByteDataEihh
FN:107,_ZN10BackMotors12readByteDataEih
FN:116,_GLOBAL__sub_I__ZN10BackMotorsC2Ev
FN:116,_ZN10BackMotors10getFdMotorEv
FN:116,_Z41__static_initialization_and_destruction_0ii
FNDA:666,_ZN10BackMotors11setMotorPwmEii
FNDA:49,_GLOBAL__sub_I__ZN10BackMotorsC2Ev
FNDA:0,_ZN10BackMotors10getFdMotorEv
FNDA:1,_ZN10BackMotors12open_i2c_busEv
FNDA:94,_ZN10BackMotors8setSpeedEi
FNDA:17,_ZN10BackMotorsD2Ev
FNDA:17,_ZN10BackMotorsC2Ev
FNDA:1,_ZN10BackMotors11init_motorsEv
FNDA:1,_ZN10BackMotors12readByteDataEih
FNDA:0,_ZN10BackMotorsD0Ev
FNDA:49,_Z41__static_initialization_and_destruction_0ii
FNDA:2345,_ZN10BackMotors13writeByteDataEihh
FNF:12
FNH:10
DA:3,17
DA:5,1
DA:6,2
DA:7,1
DA:8,1
DA:9,0
DA:10,1
DA:11,0
DA:12,0
DA:14,1
DA:15,1
DA:17,34
DA:18,17
DA:19,17
DA:20,17
DA:21,17
DA:23,1
DA:26,1
DA:32,1
DA:33,1
DA:34,1
DA:37,1
DA:38,1
DA:39,1
DA:41,1
DA:44,1
DA:45,1
DA:47,0
DA:48,0
DA:49,0
DA:54,666
DA:55,666
DA:57,666
DA:58,558
DA:59,558
DA:60,558
DA:61,558
DA:64,216
DA:65,108
DA:66,108
DA:70,94
DA:72,94
DA:73,94
DA:75,94
DA:76,8
DA:77,8
DA:78,8
DA:80,8
DA:81,8
DA:82,8
DA:84,86
DA:85,8
DA:86,8
DA:87,8
DA:89,8
DA:90,8
DA:91,8
DA:94,780
DA:95,702
DA:98,94
DA:100,2345
DA:101,2345
DA:102,2345
DA:103,108
DA:105,2237
DA:107,1
DA:108,1
DA:109,0
DA:111,1
DA:112,0
DA:113,1
DA:116,147
LF:72
LH:64
end_of_record
TN:
SF:/home/team06/zeira2/Middleware/src/Battery.cpp
FN:3,_ZN7BatteryC2ESt10shared_ptrI14IBatteryReaderE
FN:15,_ZN7BatteryD0Ev
FN:15,_ZN7BatteryD2Ev
FN:18,_ZNK7Battery7getNameB5cxx11Ev
FN:22,_ZN7Battery16updateSensorDataEv
FN:27,_ZN7Battery12checkUpdatedEv
FN:37,_ZN7Battery10readSensorEv
FN:67,_ZNK7Battery13getSensorDataB5cxx11Ev
FN:71,_ZNK7Battery11getChargingEv
FN:73,_GLOBAL__sub_I__ZN7BatteryC2ESt10shared_ptrI14IBatteryReaderE
FN:73,_Z41__static_initialization_and_destruction_0ii
FNDA:95,_ZN7Battery10readSensorEv
FNDA:0,_ZN7BatteryD0Ev
FNDA:95,_ZN7Battery12checkUpdatedEv
FNDA:46,_ZNK7Battery13getSensorDataB5cxx11Ev
FNDA:95,_ZN7Battery16updateSensorDataEv
FNDA:37,_ZN7BatteryC2ESt10shared_ptrI14IBatteryReaderE
FNDA:37,_ZN7BatteryD2Ev
FNDA:61,_GLOBAL__sub_I__ZN7BatteryC2ESt10shared_ptrI14IBatteryReaderE
FNDA:5,_ZNK7Battery7getNameB5cxx11Ev
FNDA:61,_Z41__static_initialization_and_destruction_0ii
FNDA:8,_ZNK7Battery11getChargingEv
FNF:11
FNH:10
DA:3,37
DA:4,37
DA:5,37
DA:6,74
DA:8,37
DA:9,74
DA:13,37
DA:15,37
DA:16,37
DA:18,5
DA:19,5
DA:22,95
DA:23,95
DA:24,95
DA:25,95
DA:27,95
DA:28,285
DA:29,570
DA:30,82
DA:32,108
DA:35,95
DA:37,95
DA:38,190
DA:39,190
DA:40,95
DA:41,95
DA:43,190
DA:44,190
DA:45,190
DA:46,190
DA:50,95
DA:51,58
DA:52,66
DA:53,54
DA:54,108
DA:56,12
DA:57,24
DA:61,66
DA:62,66
DA:63,66
DA:67,46
DA:68,46
DA:71,8
DA:72,16
DA:73,183
LF:45
LH:45
end_of_record
TN:
SF:/home/team06/zeira2/Middleware/src/BatteryReader.cpp
FN:3,_ZN13BatteryReaderC2Eb
FN:31,_ZN13BatteryReaderD0Ev
FN:31,_ZN13BatteryReaderD2Ev
FN:37,_ZN13BatteryReader8read_adcEh
FN:60,_ZN13BatteryReader11read_chargeEv
FN:78,_ZN13BatteryReader10getVoltageEv
FN:84,_ZN13BatteryReader8getShuntEv
FN:91,_ZN13BatteryReader10isChargingEv
FN:96,_ZN13BatteryReader13getPercentageEv
FN:108,_ZN13BatteryReader15setTestAdcValueEhi
FN:114,_ZN13BatteryReader18setTestChargeValueEi
FN:118,_GLOBAL__sub_I__ZN13BatteryReaderC2Eb
FN:118,_Z41__static_initialization_and_destruction_0ii
FNDA:49,_ZN13BatteryReaderC2Eb
FNDA:103,_ZN13BatteryReader8getShuntEv
FNDA:202,_ZN13BatteryReader8read_adcEh
FNDA:63,_ZN13BatteryReader10isChargingEv
FNDA:61,_GLOBAL__sub_I__ZN13BatteryReaderC2Eb
FNDA:48,_ZN13BatteryReaderD0Ev
FNDA:44,_ZN13BatteryReader18setTestChargeValueEi
FNDA:49,_ZN13BatteryReaderD2Ev
FNDA:61,_Z41__static_initialization_and_destruction_0ii
FNDA:124,_ZN13BatteryReader15setTestAdcValueEhi
FNDA:99,_ZN13BatteryReader10getVoltageEv
FNDA:63,_ZN13BatteryReader11read_chargeEv
FNDA:87,_ZN13BatteryReader13getPercentageEv
FNF:13
FNH:13
DA:3,49
DA:4,49
DA:6,2
DA:7,1
DA:8,1
DA:9,0
DA:12,1
DA:13,0
DA:14,0
DA:16,0
DA:17,0
DA:18,0
DA:19,0
DA:21,0
DA:25,48
DA:26,48
DA:27,48
DA:29,49
DA:31,146
DA:32,49
DA:33,1
DA:35,97
DA:37,202
DA:38,202
DA:39,124
DA:40,124
DA:41,124
DA:43,0
DA:48,78
DA:49,0
DA:52,78
DA:53,0
DA:56,78
DA:57,78
DA:60,63
DA:61,63
DA:62,24
DA:65,39
DA:67,39
DA:68,0
DA:71,39
DA:72,0
DA:75,39
DA:78,99
DA:79,99
DA:80,99
DA:81,99
DA:84,103
DA:85,103
DA:86,103
DA:88,103
DA:91,63
DA:92,63
DA:93,63
DA:96,87
DA:97,87
DA:98,87
DA:99,87
DA:100,87
DA:101,12
DA:102,75
DA:103,12
DA:105,87
DA:108,124
DA:109,124
DA:110,124
DA:112,124
DA:114,44
DA:115,44
DA:116,44
DA:118,227
LF:71
LH:58
end_of_record
TN:
SF:/home/team06/zeira2/Middleware/src/CanReader.cpp
FN:3,_ZN9CanReaderC2Eb
FN:22,_ZN9CanReaderD2Ev
FN:22,_ZN9CanReaderD0Ev
FN:28,_ZN9CanReader7InitSPIEv
FN:62,_ZN9CanReader8ReadByteEh
FN:91,_ZN9CanReader9WriteByteEhh
FN:113,_ZN9CanReader5ResetEv
FN:140,_ZN9CanReader4SendEtPhh
FN:185,_ZN9CanReader4InitEv
FN:229,_ZN9CanReader7ReceiveEPhRh
FN:267,_ZN9CanReader5getIdEv
FN:275,_ZN9CanReader15setTestRegisterEhh
FN:282,_ZNK9CanReader15getTestRegisterEh
FN:292,_ZN9CanReader18setTestReceiveDataEPKhht
FN:310,_ZN9CanReader20setTestShouldReceiveEb
FN:319,_Z41__static_initialization_and_destruction_0ii
FN:319,_GLOBAL__sub_I__ZN9CanReaderC2Eb
FNDA:5,_ZN9CanReader7InitSPIEv
FNDA:8,_ZN9CanReader18setTestReceiveDataEPKhht
FNDA:5,_ZN9CanReader5ResetEv
FNDA:49,_ZN9CanReaderC2Eb
FNDA:44,_ZN9CanReaderD0Ev
FNDA:44,_ZN9CanReader8ReadByteEh
FNDA:16,_ZN9CanReader20setTestShouldReceiveEb
FNDA:49,_ZN9CanReaderD2Ev
FNDA:61,_Z41__static_initialization_and_destruction_0ii
FNDA:55,_ZN9CanReader7ReceiveEPhRh
FNDA:45,_ZN9CanReader4InitEv
FNDA:61,_GLOBAL__sub_I__ZN9CanReaderC2Eb
FNDA:105,_ZN9CanReader9WriteByteEhh
FNDA:8,_ZN9CanReader4SendEtPhh
FNDA:8,_ZN9CanReader5getIdEv
FNDA:192,_ZN9CanReader15setTestRegisterEhh
FNDA:56,_ZNK9CanReader15getTestRegisterEh
FNF:17
FNH:17
DA:3,49
DA:4,49
DA:6,5
DA:7,5
DA:8,0
DA:10,0
DA:11,0
DA:15,44
DA:16,44
DA:17,44
DA:18,44
DA:20,49
DA:22,142
DA:23,49
DA:24,5
DA:26,93
DA:28,5
DA:29,5
DA:30,0
DA:33,5
DA:34,5
DA:35,0
DA:38,5
DA:39,5
DA:40,5
DA:42,5
DA:43,0
DA:46,5
DA:47,0
DA:50,5
DA:51,0
DA:53,0
DA:54,0
DA:55,0
DA:56,0
DA:59,5
DA:62,44
DA:63,44
DA:64,0
DA:65,0
DA:66,0
DA:68,0
DA:71,44
DA:72,44
DA:75,44
DA:76,44
DA:77,44
DA:78,44
DA:79,44
DA:80,44
DA:81,44
DA:83,44
DA:84,0
DA:85,0
DA:88,44
DA:91,105
DA:92,105
DA:93,40
DA:94,40
DA:97,65
DA:100,65
DA:101,65
DA:102,65
DA:103,65
DA:104,65
DA:105,65
DA:106,65
DA:108,65
DA:109,0
DA:113,5
DA:114,5
DA:116,0
DA:117,0
DA:118,0
DA:119,0
DA:120,0
DA:121,0
DA:124,5
DA:127,5
DA:128,5
DA:129,5
DA:130,5
DA:131,5
DA:132,5
DA:133,5
DA:135,5
DA:136,0
DA:140,8
DA:141,8
DA:143,8
DA:145,8
DA:148,0
DA:150,0
DA:151,0
DA:152,0
DA:153,0
DA:154,0
DA:156,0
DA:157,0
DA:160,0
DA:161,0
DA:162,0
DA:163,0
DA:164,0
DA:168,0
DA:170,0
DA:171,0
DA:172,0
DA:173,0
DA:174,0
DA:175,0
DA:176,0
DA:178,0
DA:179,0
DA:182,0
DA:185,45
DA:186,45
DA:188,40
DA:189,40
DA:192,5
DA:193,5
DA:196,5
DA:197,5
DA:198,5
DA:201,5
DA:202,5
DA:203,5
DA:206,5
DA:207,5
DA:208,5
DA:209,5
DA:212,5
DA:213,5
DA:216,5
DA:219,5
DA:220,5
DA:221,0
DA:222,0
DA:223,0
DA:226,5
DA:229,55
DA:230,55
DA:231,16
DA:232,8
DA:233,8
DA:236,8
DA:237,8
DA:238,8
DA:242,39
DA:243,39
DA:244,39
DA:248,0
DA:249,0
DA:252,0
DA:253,0
DA:257,0
DA:259,0
DA:260,0
DA:261,0
DA:264,0
DA:267,8
DA:268,8
DA:269,8
DA:271,0
DA:275,192
DA:276,192
DA:277,192
DA:279,192
DA:282,56
DA:283,56
DA:284,56
DA:285,56
DA:286,56
DA:289,0
DA:292,8
DA:293,8
DA:294,8
DA:295,8
DA:296,8
DA:297,8
DA:300,8
DA:301,8
DA:302,8
DA:304,72
DA:305,64
DA:308,8
DA:310,16
DA:311,16
DA:312,16
DA:313,16
DA:314,8
DA:316,8
DA:319,199
LF:193
LH:129
end_of_record
TN:
SF:/home/team06/zeira2/Middleware/src/ControlAssembly.cpp
FN:3,_ZN15ControlAssemblyC2ERKNSt7__cxx1112basic_stringIcSt11char_traitsIcESaIcEEERN3zmq9context_tESt10shared_ptrI11IBackMotorsESB_I7IFServoE
FN:26,_ZN15ControlAssemblyD2Ev
FN:34,_ZN15ControlAssembly5startEv
FN:40,_ZN15ControlAssembly4stopEv
FN:50,_ZN15ControlAssembly15receiveMessagesEv
FN:67,_ZN15ControlAssembly13handleMessageERKNSt7__cxx1112basic_stringIcSt11char_traitsIcESaIcEEE
FN:112,_GLOBAL__sub_I__ZN15ControlAssemblyC2ERKNSt7__cxx1112basic_stringIcSt11char_traitsIcESaIcEEERN3zmq9context_tESt10shared_ptrI11IBackMotorsESB_I7IFServoE
FN:112,_Z41__static_initialization_and_destruction_0ii
FNDA:49,_Z41__static_initialization_and_destruction_0ii
FNDA:21,_ZN15ControlAssemblyC2ERKNSt7__cxx1112basic_stringIcSt11char_traitsIcESaIcEEERN3zmq9context_tESt10shared_ptrI11IBackMotorsESB_I7IFServoE
FNDA:49,_GLOBAL__sub_I__ZN15ControlAssemblyC2ERKNSt7__cxx1112basic_stringIcSt11char_traitsIcESaIcEEERN3zmq9context_tESt10shared_ptrI11IBackMotorsESB_I7IFServoE
FNDA:17,_ZN15ControlAssembly15receiveMessagesEv
FNDA:92,_ZN15ControlAssembly13handleMessageERKNSt7__cxx1112basic_stringIcSt11char_traitsIcESaIcEEE
FNDA:21,_ZN15ControlAssemblyD2Ev
FNDA:38,_ZN15ControlAssembly4stopEv
FNDA:17,_ZN15ControlAssembly5startEv
FNF:8
FNH:8
DA:3,21
DA:6,21
DA:9,43
DA:10,43
DA:11,86
DA:12,21
DA:13,21
DA:14,21
DA:15,21
DA:16,0
DA:17,0
DA:19,21
DA:20,0
DA:21,0
DA:23,21
DA:26,42
DA:27,21
DA:28,21
DA:29,21
DA:30,21
DA:31,21
DA:32,21
DA:34,17
DA:35,17
DA:36,17
DA:37,17
DA:38,17
DA:40,38
DA:41,38
DA:42,38
DA:43,21
DA:44,17
DA:45,17
DA:48,38
DA:50,17
DA:51,17
DA:52,945
DA:53,928
DA:55,464
DA:56,92
DA:57,92
DA:59,372
DA:62,464
DA:64,17
DA:65,17
DA:67,92
DA:68,180
DA:69,180
DA:70,180
DA:71,92
DA:72,404
DA:73,156
DA:75,288
DA:77,288
DA:78,144
DA:79,144
DA:80,144
DA:81,144
DA:85,92
DA:86,4
DA:87,4
DA:88,4
DA:89,4
DA:90,4
DA:93,88
DA:94,88
DA:97,88
DA:98,60
DA:99,60
DA:100,60
DA:104,88
DA:105,72
DA:106,72
DA:107,72
DA:111,88
DA:112,147
LF:76
LH:72
end_of_record
TN:
SF:/home/team06/zeira2/Middleware/src/ControlLogger.cpp
FN:6,_ZN13ControlLoggerC2ERKNSt7__cxx1112basic_stringIcSt11char_traitsIcESaIcEEE
FN:42,_ZN13ControlLoggerD2Ev
FN:55,_ZN13ControlLogger16logControlUpdateERKNSt7__cxx1112basic_stringIcSt11char_traitsIcESaIcEEEdd
FN:77,_ZN13ControlLogger8logErrorERKNSt7__cxx1112basic_stringIcSt11char_traitsIcESaIcEEE
FN:95,_ZNK13ControlLogger12getTimestampB5cxx11Ev
FN:110,_GLOBAL__sub_I__ZN13ControlLoggerC2ERKNSt7__cxx1112basic_stringIcSt11char_traitsIcESaIcEEE
FN:110,_Z41__static_initialization_and_destruction_0ii
FNDA:198,_ZNK13ControlLogger12getTimestampB5cxx11Ev
FNDA:41,_ZN13ControlLoggerD2Ev
FNDA:4,_ZN13ControlLogger8logErrorERKNSt7__cxx1112basic_stringIcSt11char_traitsIcESaIcEEE
FNDA:41,_ZN13ControlLoggerC2ERKNSt7__cxx1112basic_stringIcSt11char_traitsIcESaIcEEE
FNDA:53,_Z41__static_initialization_and_destruction_0ii
FNDA:112,_ZN13ControlLogger16logControlUpdateERKNSt7__cxx1112basic_stringIcSt11char_traitsIcESaIcEEEdd
FNDA:53,_GLOBAL__sub_I__ZN13ControlLoggerC2ERKNSt7__cxx1112basic_stringIcSt11char_traitsIcESaIcEEE
FNF:7
FNH:7
DA:6,41
DA:7,41
DA:10,82
DA:11,41
DA:13,44
DA:14,22
DA:15,22
DA:17,19
DA:21,41
DA:22,41
DA:23,0
DA:24,0
DA:27,41
DA:30,82
DA:31,41
DA:34,41
DA:35,0
DA:36,0
DA:39,41
DA:40,41
DA:42,82
DA:43,41
DA:45,82
DA:46,41
DA:47,41
DA:48,41
DA:49,0
DA:50,0
DA:53,41
DA:55,112
DA:57,224
DA:58,112
DA:59,0
DA:60,0
DA:63,224
DA:65,224
DA:66,112
DA:67,112
DA:70,112
DA:71,112
DA:72,0
DA:73,0
DA:77,4
DA:79,8
DA:80,4
DA:81,0
DA:82,0
DA:85,8
DA:86,8
DA:87,4
DA:89,4
DA:90,0
DA:91,0
DA:95,198
DA:97,198
DA:98,198
DA:99,396
DA:100,594
DA:102,396
DA:103,198
DA:104,198
DA:105,198
DA:106,0
DA:107,0
DA:108,0
DA:110,159
LF:66
LH:49
end_of_record
TN:
SF:/home/team06/zeira2/Middleware/src/FServo.cpp
FN:3,_ZN6FServoC2Ev
FN:5,_ZN6FServo12open_i2c_busEv
FN:16,_ZN6FServoD0Ev
FN:16,_ZN6FServoD2Ev
FN:21,_ZN6FServo10init_servoEv
FN:50,_ZN6FServo11setServoPwmEiii
FN:64,_ZN6FServo12set_steeringEi
FN:83,_ZN6FServo13writeByteDataEihh
FN:90,_ZN6FServo12readByteDataEih
FN:97,_GLOBAL__sub_I__ZN6FServoC2Ev
FN:97,_Z41__static_initialization_and_destruction_0ii
FNDA:57,_ZN6FServo11setServoPwmEiii
FNDA:17,_ZN6FServoC2Ev
FNDA:0,_ZN6FServoD0Ev
FNDA:1,_ZN6FServo12open_i2c_busEv
FNDA:49,_GLOBAL__sub_I__ZN6FServoC2Ev
FNDA:77,_ZN6FServo12set_steeringEi
FNDA:17,_ZN6FServoD2Ev
FNDA:1,_ZN6FServo10init_servoEv
FNDA:49,_Z41__static_initialization_and_destruction_0ii
FNDA:233,_ZN6FServo13writeByteDataEihh
FNDA:0,_ZN6FServo12readByteDataEih
FNF:11
FNH:9
DA:3,17
DA:5,1
DA:6,1
DA:7,1
DA:8,1
DA:9,0
DA:10,1
DA:11,0
DA:12,0
DA:14,1
DA:16,34
DA:17,17
DA:18,17
DA:19,17
DA:21,1
DA:24,1
DA:25,1
DA:28,1
DA:29,1
DA:32,1
DA:33,1
DA:36,1
DA:37,1
DA:40,1
DA:41,1
DA:42,1
DA:44,0
DA:45,0
DA:46,0
DA:50,57
DA:52,57
DA:53,57
DA:54,57
DA:55,57
DA:56,57
DA:58,0
DA:59,0
DA:60,0
DA:64,77
DA:66,77
DA:69,77
DA:71,8
DA:73,69
DA:75,8
DA:78,61
DA:79,77
DA:80,77
DA:81,77
DA:83,233
DA:84,233
DA:85,233
DA:86,0
DA:88,233
DA:90,0
DA:91,0
DA:92,0
DA:94,0
DA:95,0
DA:96,0
DA:97,147
LF:60
LH:44
end_of_record
TN:
SF:/home/team06/zeira2/Middleware/src/SensorHandler.cpp
FN:4,_ZN13SensorHandlerC2ERKNSt7__cxx1112basic_stringIcSt11char_traitsIcESaIcEEES7_RN3zmq9context_tESt10shared_ptrI10IPublisherESD_b
FN:34,_ZN13SensorHandlerD2Ev
FN:38,_ZN13SensorHandler10addSensorsEv
FN:45,_ZN13SensorHandler9addSensorERKNSt7__cxx1112basic_stringIcSt11char_traitsIcESaIcEEESt10shared_ptrI7ISensorE
FN:62,_ZNK13SensorHandler10getSensorsB5cxx11Ev
FN:67,_ZN13SensorHandler14sortSensorDataEv
FN:97,_ZN13SensorHandler5startEv
FN:127,_ZN13SensorHandler4stopEv
FN:151,_ZN13SensorHandler11readSensorsEv
FN:172,_ZN13SensorHandler18publishNonCriticalEv
FN:187,_ZN13SensorHandler15publishCriticalEv
FN:202,_ZN13SensorHandler17publishSensorDataERKSt10shared_ptrI10SensorDataE
FN:223,_Z41__static_initialization_and_destruction_0ii
FN:223,_GLOBAL__sub_I__ZN13SensorHandlerC2ERKNSt7__cxx1112basic_stringIcSt11char_traitsIcESaIcEEES7_RN3zmq9context_tESt10shared_ptrI10IPublisherESD_b
FNDA:1,_ZN13SensorHandler10addSensorsEv
FNDA:81,_ZN13SensorHandler15publishCriticalEv
FNDA:96,_ZN13SensorHandler9addSensorERKNSt7__cxx1112basic_stringIcSt11char_traitsIcESaIcEEESt10shared_ptrI7ISensorE
FNDA:97,_ZN13SensorHandler14sortSensorDataEv
FNDA:61,_ZN13SensorHandlerD2Ev
FNDA:81,_ZN13SensorHandler11readSensorsEv
FNDA:81,_ZN13SensorHandler18publishNonCriticalEv
FNDA:261,_ZN13SensorHandler17publishSensorDataERKSt10shared_ptrI10SensorDataE
FNDA:186,_ZN13SensorHandler4stopEv
FNDA:61,_ZN13SensorHandlerC2ERKNSt7__cxx1112basic_stringIcSt11char_traitsIcESaIcEEES7_RN3zmq9context_tESt10shared_ptrI10IPublisherESD_b
FNDA:61,_Z41__static_initialization_and_destruction_0ii
FNDA:81,_ZN13SensorHandler5startEv
FNDA:16,_ZNK13SensorHandler10getSensorsB5cxx11Ev
FNDA:61,_GLOBAL__sub_I__ZN13SensorHandlerC2ERKNSt7__cxx1112basic_stringIcSt11char_traitsIcESaIcEEES7_RN3zmq9context_tESt10shared_ptrI10IPublisherESD_b
FNF:14
FNH:14
DA:4,61
DA:10,61
DA:12,123
DA:13,123
DA:14,246
DA:16,61
DA:17,1
DA:20,61
DA:21,61
DA:24,122
DA:25,63
DA:26,2
DA:27,6
DA:28,4
DA:29,4
DA:32,61
DA:34,122
DA:35,61
DA:36,61
DA:38,1
DA:39,2
DA:40,1
DA:41,1
DA:42,1
DA:43,1
DA:45,96
DA:46,192
DA:47,96
DA:49,4
DA:50,4
DA:51,4
DA:52,4
DA:56,92
DA:57,92
DA:59,96
DA:60,96
DA:62,16
DA:63,32
DA:64,32
DA:67,97
DA:69,194
DA:70,194
DA:72,97
DA:73,97
DA:75,271
DA:76,174
DA:77,0
DA:78,0
DA:81,348
DA:82,354
DA:83,184
DA:84,4
DA:85,4
DA:88,176
DA:89,121
DA:91,55
DA:95,97
DA:97,81
DA:99,81
DA:100,81
DA:103,81
DA:104,81
DA:105,81
DA:108,130
DA:109,49
DA:110,81
DA:111,0
DA:113,81
DA:116,81
DA:117,81
DA:118,81
DA:121,81
DA:122,81
DA:123,81
DA:125,81
DA:127,186
DA:128,186
DA:131,186
DA:132,186
DA:135,186
DA:136,81
DA:137,81
DA:139,186
DA:140,81
DA:141,81
DA:143,186
DA:144,81
DA:145,81
DA:148,186
DA:149,186
DA:151,288
DA:152,495
DA:154,414
DA:155,629
DA:157,422
DA:158,0
DA:159,0
DA:160,0
DA:161,0
DA:162,0
DA:163,0
DA:167,207
DA:168,207
DA:170,81
DA:172,319
DA:173,557
DA:174,476
DA:175,238
DA:177,238
DA:178,366
DA:179,208
DA:180,93
DA:185,81
DA:187,510
DA:188,939
DA:189,858
DA:190,429
DA:192,429
DA:193,631
DA:194,283
DA:195,168
DA:200,81
DA:202,261
DA:203,261
DA:204,0
DA:205,0
DA:208,522
DA:211,260
DA:212,168
DA:213,168
DA:215,93
DA:216,93
DA:218,261
DA:219,0
DA:220,0
DA:221,0
DA:223,183
LF:137
LH:123
end_of_record
TN:
SF:/home/team06/zeira2/Middleware/src/SensorLogger.cpp
FN:6,_ZN12SensorLoggerC2ERKNSt7__cxx1112basic_stringIcSt11char_traitsIcESaIcEEE
FN:42,_ZN12SensorLoggerD2Ev
FN:55,_ZN12SensorLogger15logSensorUpdateERKSt10shared_ptrI10SensorDataE
FN:84,_ZN12SensorLogger8logErrorERKNSt7__cxx1112basic_stringIcSt11char_traitsIcESaIcEEES7_
FN:103,_ZNK12SensorLogger12getTimestampB5cxx11Ev
FN:118,_Z41__static_initialization_and_destruction_0ii
FN:118,_GLOBAL__sub_I__ZN12SensorLoggerC2ERKNSt7__cxx1112basic_stringIcSt11char_traitsIcESaIcEEE
FNDA:89,_ZN12SensorLoggerD2Ev
FNDA:61,_Z41__static_initialization_and_destruction_0ii
FNDA:8,_ZN12SensorLogger8logErrorERKNSt7__cxx1112basic_stringIcSt11char_traitsIcESaIcEEES7_
FNDA:289,_ZN12SensorLogger15logSensorUpdateERKSt10shared_ptrI10SensorDataE
FNDA:61,_GLOBAL__sub_I__ZN12SensorLoggerC2ERKNSt7__cxx1112basic_stringIcSt11char_traitsIcESaIcEEE
FNDA:463,_ZNK12SensorLogger12getTimestampB5cxx11Ev
FNDA:89,_ZN12SensorLoggerC2ERKNSt7__cxx1112basic_stringIcSt11char_traitsIcESaIcEEE
FNF:7
FNH:7
DA:6,89
DA:7,89
DA:10,178
DA:11,89
DA:13,60
DA:14,30
DA:15,30
DA:17,59
DA:21,89
DA:22,89
DA:23,0
DA:24,0
DA:27,89
DA:30,178
DA:31,89
DA:34,89
DA:35,0
DA:36,0
DA:39,89
DA:40,89
DA:42,178
DA:43,89
DA:45,178
DA:46,89
DA:47,89
DA:48,89
DA:49,0
DA:50,0
DA:53,89
DA:55,289
DA:56,289
DA:59,570
DA:60,285
DA:61,0
DA:62,0
DA:66,285
DA:67,554
DA:68,277
DA:69,831
DA:70,277
DA:71,277
DA:72,277
DA:75,277
DA:76,554
DA:77,277
DA:79,0
DA:80,0
DA:84,8
DA:86,16
DA:87,8
DA:88,0
DA:89,0
DA:92,16
DA:94,16
DA:95,8
DA:97,8
DA:98,0
DA:99,0
DA:103,463
DA:105,463
DA:106,463
DA:107,926
DA:108,1389
DA:110,926
DA:111,463
DA:112,463
DA:113,463
DA:114,0
DA:115,0
DA:116,0
DA:118,183
LF:71
LH:54
end_of_record
TN:
SF:/home/team06/zeira2/Middleware/src/Speed.cpp
FN:3,_ZN5SpeedC2ESt10shared_ptrI10ICanReaderE
FN:12,_ZN5SpeedD0Ev
FN:12,_ZN5SpeedD2Ev
FN:15,_ZNK5Speed7getNameB5cxx11Ev
FN:19,_ZNK5Speed13getSensorDataB5cxx11Ev
FN:23,_ZN5Speed16updateSensorDataEv
FN:43,_ZN5Speed12checkUpdatedEv
FN:53,_ZN5Speed10readSensorEv
FN:73,_ZN5Speed12calculateOdoEv
FN:92,_GLOBAL__sub_I__ZN5SpeedC2ESt10shared_ptrI10ICanReaderE
FN:92,_Z41__static_initialization_and_destruction_0ii
FNDA:60,_ZN5Speed12calculateOdoEv
FNDA:61,_GLOBAL__sub_I__ZN5SpeedC2ESt10shared_ptrI10ICanReaderE
FNDA:49,_ZN5SpeedC2ESt10shared_ptrI10ICanReaderE
FNDA:107,_ZN5Speed10readSensorEv
FNDA:61,_Z41__static_initialization_and_destruction_0ii
FNDA:107,_ZN5Speed12checkUpdatedEv
FNDA:66,_ZNK5Speed13getSensorDataB5cxx11Ev
FNDA:49,_ZN5SpeedD2Ev
FNDA:0,_ZN5SpeedD0Ev
FNDA:107,_ZN5Speed16updateSensorDataEv
FNDA:5,_ZNK5Speed7getNameB5cxx11Ev
FNF:11
FNH:10
DA:3,49
DA:4,49
DA:5,49
DA:6,98
DA:8,49
DA:9,98
DA:10,49
DA:12,49
DA:13,49
DA:15,5
DA:16,5
DA:19,66
DA:20,66
DA:23,107
DA:24,107
DA:28,107
DA:29,107
DA:32,107
DA:35,107
DA:36,60
DA:38,107
DA:39,28
DA:41,107
DA:43,107
DA:44,321
DA:45,642
DA:46,80
DA:48,134
DA:51,107
DA:53,107
DA:54,107
DA:55,64
DA:56,120
DA:57,120
DA:58,120
DA:59,60
DA:63,60
DA:65,60
DA:68,4
DA:71,107
DA:73,60
DA:74,120
DA:75,120
DA:76,60
DA:77,60
DA:80,60
DA:81,60
DA:84,120
DA:85,60
DA:86,120
DA:89,60
DA:90,28
DA:92,243
LF:53
LH:53
end_of_record
